; ModuleID = '40/2422.c'
source_filename = "40/2422.c"
target datalayout = "e-m:e-p270:32:32-p271:32:32-p272:64:64-i64:64-f80:128-n8:16:32:64-S128"
target triple = "x86_64-pc-linux-gnu"

@.str = private unnamed_addr constant [4 x i8] c"%lf\00", align 1
@.str.1 = private unnamed_addr constant [14 x i8] c"Invalid input\00", align 1
@.str.2 = private unnamed_addr constant [6 x i8] c"%.4lf\00", align 1

; Function Attrs: noinline nounwind uwtable
define dso_local i32 @main() #0 {
  %1 = alloca i32, align 4
  %2 = alloca double, align 8
  %3 = alloca double, align 8
  %4 = alloca double, align 8
  %5 = alloca double, align 8
  %6 = alloca double, align 8
  %7 = alloca double, align 8
  %8 = alloca double, align 8
  store i32 0, i32* %1, align 4
  %9 = call i32 (i8*, ...) @__isoc99_scanf(i8* getelementptr inbounds ([4 x i8], [4 x i8]* @.str, i64 0, i64 0), double* %2)
  %10 = call i32 (i8*, ...) @__isoc99_scanf(i8* getelementptr inbounds ([4 x i8], [4 x i8]* @.str, i64 0, i64 0), double* %3)
  %11 = call i32 (i8*, ...) @__isoc99_scanf(i8* getelementptr inbounds ([4 x i8], [4 x i8]* @.str, i64 0, i64 0), double* %4)
  %12 = call i32 (i8*, ...) @__isoc99_scanf(i8* getelementptr inbounds ([4 x i8], [4 x i8]* @.str, i64 0, i64 0), double* %5)
  %13 = call i32 (i8*, ...) @__isoc99_scanf(i8* getelementptr inbounds ([4 x i8], [4 x i8]* @.str, i64 0, i64 0), double* %6)
  %14 = load double, double* %6, align 8
  %15 = fdiv double %14, 1.800000e+02
  %16 = fmul double %15, 0x400921FB4D12D84A
  store double %16, double* %6, align 8
  %17 = load double, double* %2, align 8
  %18 = load double, double* %3, align 8
  %19 = fadd double %17, %18
  %20 = load double, double* %4, align 8
  %21 = fadd double %19, %20
  %22 = load double, double* %5, align 8
  %23 = fadd double %21, %22
  %24 = fdiv double %23, 2.000000e+00
  store double %24, double* %8, align 8
  %25 = load double, double* %8, align 8
  %26 = load double, double* %2, align 8
  %27 = fsub double %25, %26
  %28 = load double, double* %8, align 8
  %29 = load double, double* %3, align 8
  %30 = fsub double %28, %29
  %31 = fmul double %27, %30
  %32 = load double, double* %8, align 8
  %33 = load double, double* %4, align 8
  %34 = fsub double %32, %33
  %35 = fmul double %31, %34
  %36 = load double, double* %8, align 8
  %37 = load double, double* %5, align 8
  %38 = fsub double %36, %37
  %39 = fmul double %35, %38
  %40 = load double, double* %2, align 8
  %41 = load double, double* %3, align 8
  %42 = fmul double %40, %41
  %43 = load double, double* %4, align 8
  %44 = fmul double %42, %43
  %45 = load double, double* %5, align 8
  %46 = fmul double %44, %45
  %47 = load double, double* %6, align 8
  %48 = fdiv double %47, 2.000000e+00
  %49 = call double @cos(double %48) #3
  %50 = call double @pow(double %49, double 2.000000e+00) #3
  %51 = fmul double %46, %50
  %52 = fsub double %39, %51
  %53 = call double @sqrt(double %52) #3
  store double %53, double* %7, align 8
  %54 = load double, double* %8, align 8
  %55 = load double, double* %2, align 8
  %56 = fsub double %54, %55
  %57 = load double, double* %8, align 8
  %58 = load double, double* %3, align 8
  %59 = fsub double %57, %58
  %60 = fmul double %56, %59
  %61 = load double, double* %8, align 8
  %62 = load double, double* %4, align 8
  %63 = fsub double %61, %62
  %64 = fmul double %60, %63
  %65 = load double, double* %8, align 8
  %66 = load double, double* %5, align 8
  %67 = fsub double %65, %66
  %68 = fmul double %64, %67
  %69 = load double, double* %2, align 8
  %70 = load double, double* %3, align 8
  %71 = fmul double %69, %70
  %72 = load double, double* %4, align 8
  %73 = fmul double %71, %72
  %74 = load double, double* %5, align 8
  %75 = fmul double %73, %74
  %76 = load double, double* %6, align 8
  %77 = fdiv double %76, 2.000000e+00
  %78 = call double @cos(double %77) #3
  %79 = call double @pow(double %78, double 2.000000e+00) #3
  %80 = fmul double %75, %79
  %81 = fsub double %68, %80
  %82 = fcmp olt double %81, 0.000000e+00
  br i1 %82, label %83, label %85

83:                                               ; preds = %0
  %84 = call i32 (i8*, ...) @printf(i8* getelementptr inbounds ([14 x i8], [14 x i8]* @.str.1, i64 0, i64 0))
  br label %88

85:                                               ; preds = %0
  %86 = load double, double* %7, align 8
  %87 = call i32 (i8*, ...) @printf(i8* getelementptr inbounds ([6 x i8], [6 x i8]* @.str.2, i64 0, i64 0), double %86)
  br label %88

88:                                               ; preds = %85, %83
  ret i32 0
}

declare dso_local i32 @__isoc99_scanf(i8*, ...) #1

; Function Attrs: nounwind
declare dso_local double @sqrt(double) #2

; Function Attrs: nounwind
declare dso_local double @pow(double, double) #2

; Function Attrs: nounwind
declare dso_local double @cos(double) #2

declare dso_local i32 @printf(i8*, ...) #1


!llvm.module.flags = !{!0}
!llvm.ident = !{!1}

!0 = !{i32 1, !"wchar_size", i32 4}
!1 = !{!"clang version 10.0.0-4ubuntu1 "}
